; Function Attrs: nounwind uwtable
define internal { i64, i64 } @VIRTUAL_JoystickGetDeviceGUID(i32 noundef %0) #0 {
  tail call void @SDL_AssertJoysticksLocked() #8
  %.06.i = load ptr, ptr @g_VJoys, align 8
  %2 = icmp eq ptr %.06.i, null
  %3 = icmp eq i32 %0, 0
  %or.cond7.i = or i1 %3, %2
  br i1 %or.cond7.i, label %VIRTUAL_HWDataForIndex.exit, label %.lr.ph.i

.lr.ph.i:                                         ; preds = %1, %.lr.ph.i
  %.09.i = phi ptr [ %.0.i, %.lr.ph.i ], [ %.06.i, %1 ]
  %.058.i = phi i32 [ %4, %.lr.ph.i ], [ %0, %1 ]
  %4 = add nsw i32 %.058.i, -1
  %5 = getelementptr inbounds nuw i8, ptr %.09.i, i64 264
  %.0.i = load ptr, ptr %5, align 8
  %6 = icmp eq ptr %.0.i, null
  %7 = icmp eq i32 %4, 0
  %or.cond.i = select i1 %6, i1 true, i1 %7
  br i1 %or.cond.i, label %VIRTUAL_HWDataForIndex.exit, label %.lr.ph.i, !llvm.loop !13

VIRTUAL_HWDataForIndex.exit:                      ; preds = %.lr.ph.i, %1
  %.0.lcssa.i = phi ptr [ %.06.i, %1 ], [ %.0.i, %.lr.ph.i ]
  %.not = icmp eq ptr %.0.lcssa.i, null
  br i1 %.not, label %10, label %8

8:                                                ; preds = %VIRTUAL_HWDataForIndex.exit
  %9 = getelementptr inbounds nuw i8, ptr %.0.lcssa.i, i64 20
  %.sroa.0.0.copyload = load i64, ptr %9, align 4
  %.sroa.3.0..sroa_idx = getelementptr inbounds nuw i8, ptr %.0.lcssa.i, i64 28
  %.sroa.3.0.copyload = load i64, ptr %.sroa.3.0..sroa_idx, align 4
  br label %10

10:                                               ; preds = %VIRTUAL_HWDataForIndex.exit, %8
  %.sroa.3.0 = phi i64 [ %.sroa.3.0.copyload, %8 ], [ 0, %VIRTUAL_HWDataForIndex.exit ]
  %.sroa.0.0 = phi i64 [ %.sroa.0.0.copyload, %8 ], [ 0, %VIRTUAL_HWDataForIndex.exit ]
  %.fca.0.insert = insertvalue { i64, i64 } poison, i64 %.sroa.0.0, 0
  %.fca.1.insert = insertvalue { i64, i64 } %.fca.0.insert, i64 %.sroa.3.0, 1
  ret { i64, i64 } %.fca.1.insert
}